(dp1
S'rangeid'
p2
I114
sS'prevwidth'
p3
I551
sS'range_interval'
p4
(dp5
I112
I01
sI40
I01
sI105
I01
sI42
I01
sI48
I01
sI83
I01
sI58
I01
sI60
I01
ssS'interval'
p6
I00
sS'range'
p7
(dp8
I32
(lp9
I260
aI269
aI402
aI646
aI551
aI825
aI702
aI226
asI112
(lp10
I586
aI586
asI40
(lp11
I301
aI301
asI105
(lp12
I259
aI259
asI42
(lp13
I551
aI551
asI107
(lp14
I496
aI259
aI896
aI589
aI577
asI44
(lp15
I250
aI322
aI268
aI373
asI48
(lp16
I551
aI551
aI551
aI551
aI551
aI551
aI551
aI551
aI551
aI551
asI114
(lp17
I399
aI451
aI339
aI589
aI479
aI746
aI500
aI489
aI441
aI354
aI551
aI354
aI551
asI83
(lp18
I519
aI519
asI85
(lp19
I698
aI568
aI884
aI547
aI527
aI539
aI303
aI373
aI303
aI532
aI411
aI577
aI531
aI586
aI463
aI586
aI535
aI329
aI518
aI589
asI58
(lp20
I268
aI268
asI60
(lp21
I551
aI551
aI551
asI63
(lp22
I426
aI866
aI608
aI621
aI603
aI684
aI528
aI491
aI690
aI701
aI339
aI271
aI579
aI491
aI870
aI729
aI742
aI576
aI741
aI590
assS'prevcid'
p23
I126
s.