(dp1
S'rangeid'
p2
I125
sS'prevwidth'
p3
I500
sS'range_interval'
p4
(dp5
I35
I01
sI40
I01
sI42
I01
sI12
I01
sI109
I01
sI47
I01
sI125
I01
sI58
I01
sI60
I01
sI74
I01
sI94
I01
ssS'interval'
p6
I01
sS'range'
p7
(dp8
I32
(lp9
I250
aI313
aI449
asI35
(lp10
I500
aI500
aI500
aI500
asI39
(lp11
I250
asI40
(lp12
I449
aI449
asI44
(lp13
I250
aI313
aI250
asI42
(lp14
I500
aI500
asI12
(lp15
I333
aI333
asI109
(lp16
I500
aI500
aI500
aI500
aI500
aI500
aI500
aI500
aI500
aI500
aI500
aI500
aI500
aI500
aI500
asI47
(lp17
I500
aI500
aI500
aI500
aI500
aI500
aI500
aI500
aI500
aI500
aI500
asI124
(lp18
I250
asI125
(lp19
I500
aI500
asI105
(lp20
I313
aI352
aI500
aI313
asI73
(lp21
I313
asI58
(lp22
I250
aI250
asI91
(lp23
I313
aI500
aI313
asI60
(lp24
I500
aI500
aI500
aI500
aI500
aI500
aI500
aI500
aI500
aI500
aI500
aI500
aI500
asI74
(lp25
I500
aI500
aI500
aI500
aI500
aI500
aI500
aI500
aI500
aI500
aI500
aI500
aI500
aI500
aI500
aI500
aI500
asI94
(lp26
I500
aI500
aI500
aI500
aI500
aI500
aI500
aI500
aI500
aI500
aI500
assS'prevcid'
p27
I126
s.