(dp1
S'rangeid'
p2
I114
sS'prevwidth'
p3
I572
sS'range_interval'
p4
(dp5
I112
I01
sI40
I01
sI105
I01
sI48
I01
sI58
I01
sI60
I01
ssS'interval'
p6
I00
sS'range'
p7
(dp8
I32
(lp9
I260
aI269
aI408
aI646
aI572
aI831
aI732
aI225
asI112
(lp10
I615
aI615
asI40
(lp11
I300
aI300
asI105
(lp12
I258
aI258
asI42
(lp13
I551
aI572
aI268
aI322
aI268
aI372
asI107
(lp14
I534
aI258
aI935
aI618
aI605
asI13
(lp15
I510
asI48
(lp16
I572
aI572
aI572
aI572
aI572
aI572
aI572
aI572
aI572
aI572
asI114
(lp17
I413
aI479
aI361
aI618
aI508
aI786
aI529
aI510
aI470
aI380
aI551
aI380
aI572
asI58
(lp18
I268
aI268
asI60
(lp19
I572
aI572
aI572
asI63
(lp20
I434
aI899
aI639
aI650
aI632
aI730
aI556
aI519
aI728
aI741
aI339
aI273
aI619
aI524
aI907
aI760
aI781
aI605
aI781
aI622
aI549
aI556
aI731
aI600
aI930
aI586
aI566
aI572
aI329
aI372
aI329
aI572
aI444
aI580
aI561
aI615
aI480
aI615
aI564
aI344
aI615
aI618
assS'prevcid'
p21
I126
s.